; Function Attrs: nounwind uwtable
define range(i32 -2, -2147483648) i32 @EVP_PKEY_CTX_get0_dh_kdf_ukm(ptr noundef %0, ptr noundef %1) local_unnamed_addr #0 {
  %3 = alloca [2 x %struct.ossl_param_st], align 16
  %4 = alloca %struct.ossl_param_st, align 8
  call void @llvm.lifetime.start.p0(i64 80, ptr nonnull %3) #4
  %5 = icmp eq ptr %0, null
  br i1 %5, label %9, label %6

6:                                                ; preds = %2
  %7 = load i32, ptr %0, align 8, !tbaa !7
  %8 = and i32 %7, 2048
  %.not.i = icmp eq i32 %8, 0
  br i1 %.not.i, label %9, label %10

9:                                                ; preds = %6, %2
  tail call void @ERR_new() #4
  tail call void @ERR_set_debug(ptr noundef nonnull @.str.5, i32 noundef 37, ptr noundef nonnull @__func__.dh_param_derive_check) #4
  tail call void (i32, i32, ptr, ...) @ERR_set_error(i32 noundef 6, i32 noundef 147, ptr noundef null) #4
  br label %dh_param_derive_check.exit

10:                                               ; preds = %6
  %11 = getelementptr inbounds nuw i8, ptr %0, i64 32
  %12 = load ptr, ptr %11, align 8, !tbaa !20
  %13 = icmp eq ptr %12, null
  br i1 %13, label %14, label %select.unfold

14:                                               ; preds = %10
  %15 = getelementptr inbounds nuw i8, ptr %0, i64 120
  %16 = load ptr, ptr %15, align 8, !tbaa !21
  %17 = load i32, ptr %16, align 8, !tbaa !22
  switch i32 %17, label %dh_param_derive_check.exit [
    i32 920, label %select.unfold
    i32 28, label %select.unfold
  ]

select.unfold:                                    ; preds = %14, %14, %10
  %18 = getelementptr inbounds nuw i8, ptr %3, i64 40
  call void @OSSL_PARAM_construct_octet_ptr(ptr dead_on_unwind nonnull writable sret(%struct.ossl_param_st) align 8 %3, ptr noundef nonnull @.str.8, ptr noundef %1, i64 noundef 0) #4
  call void @llvm.lifetime.start.p0(i64 40, ptr nonnull %4) #4
  call void @OSSL_PARAM_construct_end(ptr dead_on_unwind nonnull writable sret(%struct.ossl_param_st) align 8 %4) #4
  call void @llvm.memcpy.p0.p0.i64(ptr noundef nonnull align 8 dereferenceable(40) %18, ptr noundef nonnull align 8 dereferenceable(40) %4, i64 40, i1 false), !tbaa.struct !24
  call void @llvm.lifetime.end.p0(i64 40, ptr nonnull %4) #4
  %19 = call i32 @evp_pkey_ctx_get_params_strict(ptr noundef nonnull %0, ptr noundef nonnull %3) #4
  switch i32 %19, label %dh_param_derive_check.exit [
    i32 -2, label %20
    i32 1, label %21
  ]

20:                                               ; preds = %select.unfold
  call void @ERR_new() #4
  call void @ERR_set_debug(ptr noundef nonnull @.str.5, i32 noundef 336, ptr noundef nonnull @__func__.EVP_PKEY_CTX_get0_dh_kdf_ukm) #4
  call void (i32, i32, ptr, ...) @ERR_set_error(i32 noundef 6, i32 noundef 147, ptr noundef null) #4
  br label %dh_param_derive_check.exit

21:                                               ; preds = %select.unfold
  %22 = getelementptr inbounds nuw i8, ptr %3, i64 32
  %23 = load i64, ptr %22, align 16, !tbaa !28
  %24 = icmp ugt i64 %23, 2147483647
  %25 = trunc nuw nsw i64 %23 to i32
  %spec.select = select i1 %24, i32 -1, i32 %25
  br label %dh_param_derive_check.exit

dh_param_derive_check.exit:                       ; preds = %14, %9, %21, %20, %select.unfold
  %.0 = phi i32 [ -1, %select.unfold ], [ -1, %20 ], [ %spec.select, %21 ], [ -2, %9 ], [ -1, %14 ]
  call void @llvm.lifetime.end.p0(i64 80, ptr nonnull %3) #4
  ret i32 %.0
}